target datalayout = "e-m:e-p270:32:32-p271:32:32-p272:64:64-i64:64-i128:128-f80:128-n8:16:32:64-S128"
target triple = "x86_64-pc-linux-gnu"

@.str = private unnamed_addr constant [35 x i8] c"../openssl/ssl/statem/statem_lib.c\00", align 1
@__func__.tls_construct_change_cipher_spec = private unnamed_addr constant [33 x i8] c"tls_construct_change_cipher_spec\00", align 1

; Function Attrs: nounwind uwtable
define i32 @tls_construct_change_cipher_spec(ptr noundef %0, ptr noundef %1) #0 {
  %3 = alloca i32, align 4
  %4 = alloca ptr, align 8
  %5 = alloca ptr, align 8
  store ptr %0, ptr %4, align 8, !tbaa !18
  store ptr %1, ptr %5, align 8, !tbaa !97
  %6 = load ptr, ptr %5, align 8, !tbaa !97
  %7 = call i32 @WPACKET_put_bytes__(ptr noundef %6, i64 noundef 1, i64 noundef 1)
  %8 = icmp ne i32 %7, 0
  br i1 %8, label %11, label %9

9:                                                ; preds = %2
  call void @ERR_new()
  call void @ERR_set_debug(ptr noundef @.str, i32 noundef 959, ptr noundef @__func__.tls_construct_change_cipher_spec)
  %10 = load ptr, ptr %4, align 8, !tbaa !18
  call void (ptr, i32, i32, ptr, ...) @ossl_statem_fatal(ptr noundef %10, i32 noundef 80, i32 noundef 786691, ptr noundef null)
  store i32 0, ptr %3, align 4
  br label %12

11:                                               ; preds = %2
  store i32 1, ptr %3, align 4
  br label %12

12:                                               ; preds = %11, %9
  %13 = load i32, ptr %3, align 4
  ret i32 %13
}