; Function Attrs: nounwind uwtable
define range(i32 0, 2) i32 @tls_construct_change_cipher_spec(ptr noundef %0, ptr noundef %1) local_unnamed_addr #0 {
  %3 = tail call i32 @WPACKET_put_bytes__(ptr noundef %1, i64 noundef 1, i64 noundef 1) #11
  %.not = icmp eq i32 %3, 0
  br i1 %.not, label %4, label %5

4:                                                ; preds = %2
  tail call void @ERR_new() #11
  tail call void @ERR_set_debug(ptr noundef nonnull @.str, i32 noundef 959, ptr noundef nonnull @__func__.tls_construct_change_cipher_spec) #11
  tail call void (ptr, i32, i32, ptr, ...) @ossl_statem_fatal(ptr noundef %0, i32 noundef 80, i32 noundef 786691, ptr noundef null) #11
  br label %5

5:                                                ; preds = %2, %4
  %.0 = phi i32 [ 0, %4 ], [ 1, %2 ]
  ret i32 %.0
}